target datalayout = "e-m:e-p270:32:32-p271:32:32-p272:64:64-i64:64-i128:128-f80:128-n8:16:32:64-S128"
target triple = "x86_64-pc-linux-gnu"

%struct.OprProofCacheEntry = type { %struct.OprProofCacheKey, i8, i8, i8, i8, i32, i32 }
%struct.OprProofCacheKey = type { i32, i32 }

; Function Attrs: nounwind uwtable
define internal zeroext i1 @operator_same_subexprs_lookup(i32 noundef %0, i32 noundef %1, i1 noundef zeroext %2) #0 {
  %4 = alloca i1, align 1
  %5 = alloca i32, align 4
  %6 = alloca i32, align 4
  %7 = alloca i8, align 1
  %8 = alloca ptr, align 8
  %9 = alloca i32, align 4
  store i32 %0, ptr %5, align 4
  store i32 %1, ptr %6, align 4
  %10 = zext i1 %2 to i8
  store i8 %10, ptr %7, align 1
  call void @llvm.lifetime.start.p0(i64 8, ptr %8) #7
  %11 = load i32, ptr %5, align 4
  %12 = load i32, ptr %6, align 4
  %13 = load i8, ptr %7, align 1, !range !4, !noundef !5
  %14 = trunc i8 %13 to i1
  %15 = call ptr @lookup_proof_cache(i32 noundef %11, i32 noundef %12, i1 noundef zeroext %14)
  store ptr %15, ptr %8, align 8
  %16 = load i8, ptr %7, align 1, !range !4, !noundef !5
  %17 = trunc i8 %16 to i1
  br i1 %17, label %18, label %23

18:                                               ; preds = %3
  %19 = load ptr, ptr %8, align 8
  %20 = getelementptr inbounds nuw %struct.OprProofCacheEntry, ptr %19, i32 0, i32 4
  %21 = load i8, ptr %20, align 1, !range !4, !noundef !5
  %22 = trunc i8 %21 to i1
  store i1 %22, ptr %4, align 1
  store i32 1, ptr %9, align 4
  br label %28

23:                                               ; preds = %3
  %24 = load ptr, ptr %8, align 8
  %25 = getelementptr inbounds nuw %struct.OprProofCacheEntry, ptr %24, i32 0, i32 3
  %26 = load i8, ptr %25, align 2, !range !4, !noundef !5
  %27 = trunc i8 %26 to i1
  store i1 %27, ptr %4, align 1
  store i32 1, ptr %9, align 4
  br label %28

28:                                               ; preds = %23, %18
  call void @llvm.lifetime.end.p0(i64 8, ptr %8) #7
  %29 = load i1, ptr %4, align 1
  ret i1 %29
}

; Function Attrs: nounwind uwtable
define internal zeroext i1 @operator_same_subexprs_proof(i32 noundef %0, i32 noundef %1, i1 noundef zeroext %2) #0 {
  %4 = alloca i1, align 1
  %5 = alloca i32, align 4
  %6 = alloca i32, align 4
  %7 = alloca i8, align 1
  store i32 %0, ptr %5, align 4
  store i32 %1, ptr %6, align 4
  %8 = zext i1 %2 to i8
  store i8 %8, ptr %7, align 1
  %9 = load i8, ptr %7, align 1, !range !4, !noundef !5
  %10 = trunc i8 %9 to i1
  br i1 %10, label %11, label %18

11:                                               ; preds = %3
  %12 = load i32, ptr %5, align 4
  %13 = call i32 @get_negator(i32 noundef %12)
  %14 = load i32, ptr %6, align 4
  %15 = icmp eq i32 %13, %14
  br i1 %15, label %16, label %17

16:                                               ; preds = %11
  store i1 true, ptr %4, align 1
  br label %30

17:                                               ; preds = %11
  br label %24

18:                                               ; preds = %3
  %19 = load i32, ptr %5, align 4
  %20 = load i32, ptr %6, align 4
  %21 = icmp eq i32 %19, %20
  br i1 %21, label %22, label %23

22:                                               ; preds = %18
  store i1 true, ptr %4, align 1
  br label %30

23:                                               ; preds = %18
  br label %24

24:                                               ; preds = %23, %17
  %25 = load i32, ptr %5, align 4
  %26 = load i32, ptr %6, align 4
  %27 = load i8, ptr %7, align 1, !range !4, !noundef !5
  %28 = trunc i8 %27 to i1
  %29 = call zeroext i1 @operator_same_subexprs_lookup(i32 noundef %25, i32 noundef %26, i1 noundef zeroext %28)
  store i1 %29, ptr %4, align 1
  br label %30

30:                                               ; preds = %24, %22, %16
  %31 = load i1, ptr %4, align 1
  ret i1 %31
}