; Function Attrs: nounwind uwtable
define internal fastcc zeroext i1 @operator_same_subexprs_proof(i32 noundef %0, i32 noundef %1, i1 noundef zeroext %2) unnamed_addr #0 {
  br i1 %2, label %4, label %7

4:                                                ; preds = %3
  %5 = tail call i32 @get_negator(i32 noundef %0) #7
  %6 = icmp eq i32 %5, %1
  br i1 %6, label %11, label %9

7:                                                ; preds = %3
  %8 = icmp eq i32 %0, %1
  br i1 %8, label %11, label %9

9:                                                ; preds = %7, %4
  %.0.in.in.v.i = phi i64 [ 10, %7 ], [ 11, %4 ]
  %10 = tail call fastcc ptr @lookup_proof_cache(i32 noundef %0, i32 noundef %1, i1 noundef zeroext %2)
  %.0.in.in.i = getelementptr inbounds nuw i8, ptr %10, i64 %.0.in.in.v.i
  %.0.in.i = load i8, ptr %.0.in.in.i, align 1, !range !14, !noundef !15
  %.0.i = trunc nuw i8 %.0.in.i to i1
  br label %11

11:                                               ; preds = %7, %4, %9
  %.0 = phi i1 [ %.0.i, %9 ], [ true, %4 ], [ true, %7 ]
  ret i1 %.0
}